; Function Attrs: mustprogress nofree norecurse nosync nounwind sspstrong willreturn memory(readwrite, inaccessiblemem: none) uwtable
define dso_local void @rb_ext_ractor_safe(i1 noundef zeroext %0) local_unnamed_addr #11 {
  %2 = zext i1 %0 to i8
  %3 = tail call align 8 ptr @llvm.threadlocal.address.p0(ptr align 8 @ruby_current_ec)
  %4 = load ptr, ptr %3, align 8, !tbaa !55
  %5 = getelementptr i8, ptr %4, i64 48
  %.val.i = load ptr, ptr %5, align 8, !tbaa !57
  %6 = getelementptr inbounds nuw i8, ptr %.val.i, i64 464
  store i8 %2, ptr %6, align 8, !tbaa !120
  ret void
}